target datalayout = "e-m:e-p270:32:32-p271:32:32-p272:64:64-i64:64-i128:128-f80:128-n8:16:32:64-S128"
target triple = "x86_64-pc-linux-gnu"

%struct.lua_State = type { %struct.GCRef, i8, i8, i8, i8, %struct.MRef, %struct.GCRef, ptr, ptr, %struct.MRef, %struct.MRef, %struct.GCRef, %struct.GCRef, ptr, i32 }
%struct.MRef = type { i64 }
%struct.GCRef = type { i64 }
%union.TValue = type { i64 }
%struct.GCstr = type { %struct.GCRef, i8, i8, i8, i8, i32, i32, i32 }
%struct.GCudata = type { %struct.GCRef, i8, i8, i8, i8, %struct.GCRef, i32, %struct.GCRef, i32 }
%struct.IOFileUD = type { ptr, i32 }
%struct.GCfuncC = type { %struct.GCRef, i8, i8, i8, i8, %struct.GCRef, %struct.GCRef, %struct.MRef, ptr, [1 x %union.TValue] }

@.str.5 = private unnamed_addr constant [27 x i8] c"cannot close standard file\00", align 1

; Function Attrs: nounwind uwtable
define internal i32 @io_file_close(ptr noundef %0, ptr noundef %1) #0 {
  %3 = alloca i32, align 4
  %4 = alloca ptr, align 8
  %5 = alloca ptr, align 8
  %6 = alloca i32, align 4
  %7 = alloca i32, align 4
  %8 = alloca i32, align 4
  store ptr %0, ptr %4, align 8, !tbaa !4
  store ptr %1, ptr %5, align 8, !tbaa !25
  call void @llvm.lifetime.start.p0(i64 4, ptr %6) #10
  %9 = load ptr, ptr %5, align 8, !tbaa !25
  %10 = getelementptr inbounds nuw %struct.IOFileUD, ptr %9, i32 0, i32 1
  %11 = load i32, ptr %10, align 8, !tbaa !34
  %12 = and i32 %11, 3
  %13 = icmp eq i32 %12, 0
  br i1 %13, label %14, label %21

14:                                               ; preds = %2
  %15 = load ptr, ptr %5, align 8, !tbaa !25
  %16 = getelementptr inbounds nuw %struct.IOFileUD, ptr %15, i32 0, i32 0
  %17 = load ptr, ptr %16, align 8, !tbaa !32
  %18 = call i32 @fclose(ptr noundef %17)
  %19 = icmp eq i32 %18, 0
  %20 = zext i1 %19 to i32
  store i32 %20, ptr %6, align 4, !tbaa !36
  br label %42

21:                                               ; preds = %2
  %22 = load ptr, ptr %5, align 8, !tbaa !25
  %23 = getelementptr inbounds nuw %struct.IOFileUD, ptr %22, i32 0, i32 1
  %24 = load i32, ptr %23, align 8, !tbaa !34
  %25 = and i32 %24, 3
  %26 = icmp eq i32 %25, 1
  br i1 %26, label %27, label %35

27:                                               ; preds = %21
  call void @llvm.lifetime.start.p0(i64 4, ptr %7) #10
  store i32 -1, ptr %7, align 4, !tbaa !36
  %28 = load ptr, ptr %5, align 8, !tbaa !25
  %29 = getelementptr inbounds nuw %struct.IOFileUD, ptr %28, i32 0, i32 0
  %30 = load ptr, ptr %29, align 8, !tbaa !32
  %31 = call i32 @pclose(ptr noundef %30)
  store i32 %31, ptr %7, align 4, !tbaa !36
  %32 = load i32, ptr %7, align 4, !tbaa !36
  %33 = icmp ne i32 %32, -1
  %34 = zext i1 %33 to i32
  store i32 %34, ptr %6, align 4, !tbaa !36
  call void @llvm.lifetime.end.p0(i64 4, ptr %7) #10
  br label %41

35:                                               ; preds = %21
  %36 = load ptr, ptr %4, align 8, !tbaa !4
  %37 = getelementptr inbounds nuw %struct.lua_State, ptr %36, i32 0, i32 8
  %38 = load ptr, ptr %37, align 8, !tbaa !9
  %39 = getelementptr inbounds nuw %union.TValue, ptr %38, i32 1
  store ptr %39, ptr %37, align 8, !tbaa !9
  store i64 -1, ptr %38, align 8, !tbaa !22
  %40 = load ptr, ptr %4, align 8, !tbaa !4
  call void @lua_pushlstring(ptr noundef %40, ptr noundef @.str.5, i64 noundef 26)
  store i32 2, ptr %3, align 4
  store i32 1, ptr %8, align 4
  br label %48

41:                                               ; preds = %27
  br label %42

42:                                               ; preds = %41, %14
  %43 = load ptr, ptr %5, align 8, !tbaa !25
  %44 = getelementptr inbounds nuw %struct.IOFileUD, ptr %43, i32 0, i32 0
  store ptr null, ptr %44, align 8, !tbaa !32
  %45 = load ptr, ptr %4, align 8, !tbaa !4
  %46 = load i32, ptr %6, align 4, !tbaa !36
  %47 = call i32 @luaL_fileresult(ptr noundef %45, i32 noundef %46, ptr noundef null)
  store i32 %47, ptr %3, align 4
  store i32 1, ptr %8, align 4
  br label %48

48:                                               ; preds = %42, %35
  call void @llvm.lifetime.end.p0(i64 4, ptr %6) #10
  %49 = load i32, ptr %3, align 4
  ret i32 %49
}

; Function Attrs: alwaysinline nounwind uwtable
define internal void @lj_state_checkstack(ptr noundef %0, i32 noundef %1) #2 {
  %3 = alloca ptr, align 8
  %4 = alloca i32, align 4
  store ptr %0, ptr %3, align 8, !tbaa !4
  store i32 %1, ptr %4, align 4, !tbaa !36
  %5 = load ptr, ptr %3, align 8, !tbaa !4
  %6 = getelementptr inbounds nuw %struct.lua_State, ptr %5, i32 0, i32 9
  %7 = getelementptr inbounds nuw %struct.MRef, ptr %6, i32 0, i32 0
  %8 = load i64, ptr %7, align 8, !tbaa !60
  %9 = inttoptr i64 %8 to ptr
  %10 = load ptr, ptr %3, align 8, !tbaa !4
  %11 = getelementptr inbounds nuw %struct.lua_State, ptr %10, i32 0, i32 8
  %12 = load ptr, ptr %11, align 8, !tbaa !9
  %13 = ptrtoint ptr %9 to i64
  %14 = ptrtoint ptr %12 to i64
  %15 = sub i64 %13, %14
  %16 = load i32, ptr %4, align 4, !tbaa !36
  %17 = zext i32 %16 to i64
  %18 = mul nsw i64 %17, 8
  %19 = icmp sle i64 %15, %18
  br i1 %19, label %20, label %23

20:                                               ; preds = %2
  %21 = load ptr, ptr %3, align 8, !tbaa !4
  %22 = load i32, ptr %4, align 4, !tbaa !36
  call void @lj_state_growstack(ptr noundef %21, i32 noundef %22)
  br label %23

23:                                               ; preds = %20, %2
  ret void
}

; Function Attrs: nounwind uwtable
define internal i32 @io_file_iter(ptr noundef %0) #0 {
  %2 = alloca i32, align 4
  %3 = alloca ptr, align 8
  %4 = alloca ptr, align 8
  %5 = alloca ptr, align 8
  %6 = alloca i32, align 4
  %7 = alloca i32, align 4
  store ptr %0, ptr %3, align 8, !tbaa !4
  call void @llvm.lifetime.start.p0(i64 8, ptr %4) #10
  %8 = load ptr, ptr %3, align 8, !tbaa !4
  %9 = getelementptr inbounds nuw %struct.lua_State, ptr %8, i32 0, i32 7
  %10 = load ptr, ptr %9, align 8, !tbaa !35
  %11 = getelementptr inbounds %union.TValue, ptr %10, i64 -2
  %12 = getelementptr inbounds nuw %struct.GCRef, ptr %11, i32 0, i32 0
  %13 = load i64, ptr %12, align 8, !tbaa !22
  %14 = and i64 %13, 140737488355327
  %15 = inttoptr i64 %14 to ptr
  store ptr %15, ptr %4, align 8, !tbaa !58
  call void @llvm.lifetime.start.p0(i64 8, ptr %5) #10
  %16 = load ptr, ptr %4, align 8, !tbaa !58
  %17 = getelementptr inbounds nuw %struct.GCfuncC, ptr %16, i32 0, i32 9
  %18 = getelementptr inbounds [1 x %union.TValue], ptr %17, i64 0, i64 0
  %19 = getelementptr inbounds nuw %struct.GCRef, ptr %18, i32 0, i32 0
  %20 = load i64, ptr %19, align 8, !tbaa !22
  %21 = and i64 %20, 140737488355327
  %22 = inttoptr i64 %21 to ptr
  %23 = getelementptr inbounds %struct.GCudata, ptr %22, i64 1
  store ptr %23, ptr %5, align 8, !tbaa !25
  call void @llvm.lifetime.start.p0(i64 4, ptr %6) #10
  %24 = load ptr, ptr %4, align 8, !tbaa !58
  %25 = getelementptr inbounds nuw %struct.GCfuncC, ptr %24, i32 0, i32 4
  %26 = load i8, ptr %25, align 1, !tbaa !22
  %27 = zext i8 %26 to i32
  %28 = sub nsw i32 %27, 1
  store i32 %28, ptr %6, align 4, !tbaa !36
  %29 = load ptr, ptr %5, align 8, !tbaa !25
  %30 = getelementptr inbounds nuw %struct.IOFileUD, ptr %29, i32 0, i32 0
  %31 = load ptr, ptr %30, align 8, !tbaa !32
  %32 = icmp eq ptr %31, null
  br i1 %32, label %33, label %35

33:                                               ; preds = %1
  %34 = load ptr, ptr %3, align 8, !tbaa !4
  call void @lj_err_caller(ptr noundef %34, i32 noundef 1531) #11
  unreachable

35:                                               ; preds = %1
  %36 = load ptr, ptr %3, align 8, !tbaa !4
  %37 = getelementptr inbounds nuw %struct.lua_State, ptr %36, i32 0, i32 7
  %38 = load ptr, ptr %37, align 8, !tbaa !35
  %39 = load ptr, ptr %3, align 8, !tbaa !4
  %40 = getelementptr inbounds nuw %struct.lua_State, ptr %39, i32 0, i32 8
  store ptr %38, ptr %40, align 8, !tbaa !9
  %41 = load i32, ptr %6, align 4, !tbaa !36
  %42 = icmp ne i32 %41, 0
  br i1 %42, label %43, label %61

43:                                               ; preds = %35
  %44 = load ptr, ptr %3, align 8, !tbaa !4
  %45 = load i32, ptr %6, align 4, !tbaa !36
  call void @lj_state_checkstack(ptr noundef %44, i32 noundef %45)
  %46 = load ptr, ptr %3, align 8, !tbaa !4
  %47 = getelementptr inbounds nuw %struct.lua_State, ptr %46, i32 0, i32 8
  %48 = load ptr, ptr %47, align 8, !tbaa !9
  %49 = load ptr, ptr %4, align 8, !tbaa !58
  %50 = getelementptr inbounds nuw %struct.GCfuncC, ptr %49, i32 0, i32 9
  %51 = getelementptr inbounds [1 x %union.TValue], ptr %50, i64 0, i64 1
  %52 = load i32, ptr %6, align 4, !tbaa !36
  %53 = sext i32 %52 to i64
  %54 = mul i64 %53, 8
  call void @llvm.memcpy.p0.p0.i64(ptr align 8 %48, ptr align 8 %51, i64 %54, i1 false)
  %55 = load i32, ptr %6, align 4, !tbaa !36
  %56 = load ptr, ptr %3, align 8, !tbaa !4
  %57 = getelementptr inbounds nuw %struct.lua_State, ptr %56, i32 0, i32 8
  %58 = load ptr, ptr %57, align 8, !tbaa !9
  %59 = sext i32 %55 to i64
  %60 = getelementptr inbounds %union.TValue, ptr %58, i64 %59
  store ptr %60, ptr %57, align 8, !tbaa !9
  br label %61

61:                                               ; preds = %43, %35
  %62 = load ptr, ptr %3, align 8, !tbaa !4
  %63 = load ptr, ptr %5, align 8, !tbaa !25
  %64 = call i32 @io_file_read(ptr noundef %62, ptr noundef %63, i32 noundef 0)
  store i32 %64, ptr %6, align 4, !tbaa !36
  %65 = load ptr, ptr %5, align 8, !tbaa !25
  %66 = getelementptr inbounds nuw %struct.IOFileUD, ptr %65, i32 0, i32 0
  %67 = load ptr, ptr %66, align 8, !tbaa !32
  %68 = call i32 @ferror(ptr noundef %67) #10
  %69 = icmp ne i32 %68, 0
  br i1 %69, label %70, label %81

70:                                               ; preds = %61
  %71 = load ptr, ptr %3, align 8, !tbaa !4
  %72 = load ptr, ptr %3, align 8, !tbaa !4
  %73 = getelementptr inbounds nuw %struct.lua_State, ptr %72, i32 0, i32 8
  %74 = load ptr, ptr %73, align 8, !tbaa !9
  %75 = getelementptr inbounds %union.TValue, ptr %74, i64 -2
  %76 = getelementptr inbounds nuw %struct.GCRef, ptr %75, i32 0, i32 0
  %77 = load i64, ptr %76, align 8, !tbaa !22
  %78 = and i64 %77, 140737488355327
  %79 = inttoptr i64 %78 to ptr
  %80 = getelementptr inbounds %struct.GCstr, ptr %79, i64 1
  call void @lj_err_callermsg(ptr noundef %71, ptr noundef %80) #11
  unreachable

81:                                               ; preds = %61
  %82 = load ptr, ptr %3, align 8, !tbaa !4
  %83 = getelementptr inbounds nuw %struct.lua_State, ptr %82, i32 0, i32 7
  %84 = load ptr, ptr %83, align 8, !tbaa !35
  %85 = load i64, ptr %84, align 8, !tbaa !22
  %86 = icmp eq i64 %85, -1
  br i1 %86, label %87, label %97

87:                                               ; preds = %81
  %88 = load ptr, ptr %5, align 8, !tbaa !25
  %89 = getelementptr inbounds nuw %struct.IOFileUD, ptr %88, i32 0, i32 1
  %90 = load i32, ptr %89, align 8, !tbaa !34
  %91 = and i32 %90, 4
  %92 = icmp ne i32 %91, 0
  br i1 %92, label %93, label %97

93:                                               ; preds = %87
  %94 = load ptr, ptr %3, align 8, !tbaa !4
  %95 = load ptr, ptr %5, align 8, !tbaa !25
  %96 = call i32 @io_file_close(ptr noundef %94, ptr noundef %95)
  store i32 0, ptr %2, align 4
  store i32 1, ptr %7, align 4
  br label %99

97:                                               ; preds = %87, %81
  %98 = load i32, ptr %6, align 4, !tbaa !36
  store i32 %98, ptr %2, align 4
  store i32 1, ptr %7, align 4
  br label %99

99:                                               ; preds = %97, %93
  call void @llvm.lifetime.end.p0(i64 4, ptr %6) #10
  call void @llvm.lifetime.end.p0(i64 8, ptr %5) #10
  call void @llvm.lifetime.end.p0(i64 8, ptr %4) #10
  %100 = load i32, ptr %2, align 4
  ret i32 %100
}