; Function Attrs: nounwind uwtable
define internal i32 @io_file_iter(ptr noundef %0) #0 {
  %2 = getelementptr inbounds nuw i8, ptr %0, i64 32
  %3 = load ptr, ptr %2, align 8, !tbaa !25
  %4 = getelementptr inbounds i8, ptr %3, i64 -16
  %5 = load i64, ptr %4, align 8, !tbaa !14
  %6 = and i64 %5, 140737488355327
  %7 = inttoptr i64 %6 to ptr
  %8 = getelementptr inbounds nuw i8, ptr %7, i64 48
  %9 = load i64, ptr %8, align 8, !tbaa !14
  %10 = and i64 %9, 140737488355327
  %11 = inttoptr i64 %10 to ptr
  %12 = getelementptr inbounds nuw i8, ptr %11, i64 48
  %13 = getelementptr inbounds nuw i8, ptr %7, i64 11
  %14 = load i8, ptr %13, align 1, !tbaa !14
  %15 = zext i8 %14 to i32
  %16 = add nsw i32 %15, -1
  %17 = load ptr, ptr %12, align 8, !tbaa !20
  %18 = icmp eq ptr %17, null
  br i1 %18, label %19, label %20

19:                                               ; preds = %1
  tail call void @lj_err_caller(ptr noundef nonnull %0, i32 noundef 1531) #11
  unreachable

20:                                               ; preds = %1
  %21 = getelementptr inbounds nuw i8, ptr %0, i64 40
  store ptr %3, ptr %21, align 8, !tbaa !4
  %.not = icmp eq i32 %16, 0
  br i1 %.not, label %36, label %22

22:                                               ; preds = %20
  %23 = getelementptr inbounds nuw i8, ptr %0, i64 48
  %24 = load i64, ptr %23, align 8, !tbaa !45
  %25 = ptrtoint ptr %3 to i64
  %26 = sub i64 %24, %25
  %27 = zext i32 %16 to i64
  %28 = shl nuw nsw i64 %27, 3
  %.not.i = icmp sgt i64 %26, %28
  br i1 %.not.i, label %lj_state_checkstack.exit, label %29

29:                                               ; preds = %22
  tail call void @lj_state_growstack(ptr noundef nonnull %0, i32 noundef range(i32 -1, 255) %16) #10
  %.pre = load ptr, ptr %21, align 8, !tbaa !4
  br label %lj_state_checkstack.exit

lj_state_checkstack.exit:                         ; preds = %22, %29
  %30 = phi ptr [ %3, %22 ], [ %.pre, %29 ]
  %31 = getelementptr inbounds nuw i8, ptr %7, i64 56
  %32 = sext i32 %16 to i64
  %33 = shl nsw i64 %32, 3
  tail call void @llvm.memcpy.p0.p0.i64(ptr align 8 %30, ptr nonnull align 8 %31, i64 %33, i1 false)
  %34 = load ptr, ptr %21, align 8, !tbaa !4
  %35 = getelementptr inbounds %union.TValue, ptr %34, i64 %32
  store ptr %35, ptr %21, align 8, !tbaa !4
  %.val.pre = load ptr, ptr %12, align 8, !tbaa !20
  br label %36

36:                                               ; preds = %lj_state_checkstack.exit, %20
  %.val = phi ptr [ %.val.pre, %lj_state_checkstack.exit ], [ %17, %20 ]
  %37 = tail call fastcc i32 @io_file_read(ptr noundef nonnull %0, ptr %.val, i32 noundef 0)
  %38 = load ptr, ptr %12, align 8, !tbaa !20
  %39 = tail call i32 @ferror(ptr noundef %38) #10
  %.not26 = icmp eq i32 %39, 0
  br i1 %.not26, label %47, label %40

40:                                               ; preds = %36
  %41 = load ptr, ptr %21, align 8, !tbaa !4
  %42 = getelementptr inbounds i8, ptr %41, i64 -16
  %43 = load i64, ptr %42, align 8, !tbaa !14
  %44 = and i64 %43, 140737488355327
  %45 = inttoptr i64 %44 to ptr
  %46 = getelementptr inbounds nuw i8, ptr %45, i64 24
  tail call void @lj_err_callermsg(ptr noundef nonnull %0, ptr noundef nonnull %46) #11
  unreachable

47:                                               ; preds = %36
  %48 = load ptr, ptr %2, align 8, !tbaa !25
  %49 = load i64, ptr %48, align 8, !tbaa !14
  %50 = icmp eq i64 %49, -1
  br i1 %50, label %51, label %io_file_close.exit

51:                                               ; preds = %47
  %52 = getelementptr inbounds nuw i8, ptr %11, i64 56
  %53 = load i32, ptr %52, align 8, !tbaa !22
  %54 = and i32 %53, 4
  %.not27 = icmp eq i32 %54, 0
  br i1 %.not27, label %io_file_close.exit, label %55

55:                                               ; preds = %51
  %56 = and i32 %53, 3
  switch i32 %56, label %63 [
    i32 0, label %57
    i32 1, label %60
  ]

57:                                               ; preds = %55
  %58 = tail call i32 @fclose(ptr noundef %38)
  %59 = icmp eq i32 %58, 0
  br label %66

60:                                               ; preds = %55
  %61 = tail call i32 @pclose(ptr noundef %38)
  %62 = icmp ne i32 %61, -1
  br label %66

63:                                               ; preds = %55
  %64 = load ptr, ptr %21, align 8, !tbaa !4
  %65 = getelementptr inbounds nuw i8, ptr %64, i64 8
  store ptr %65, ptr %21, align 8, !tbaa !4
  store i64 -1, ptr %64, align 8, !tbaa !14
  tail call void @lua_pushlstring(ptr noundef nonnull %0, ptr noundef nonnull @.str.5, i64 noundef 26) #10
  br label %io_file_close.exit

66:                                               ; preds = %60, %57
  %.010.in.i = phi i1 [ %59, %57 ], [ %62, %60 ]
  %.010.i = zext i1 %.010.in.i to i32
  store ptr null, ptr %12, align 8, !tbaa !20
  %67 = tail call i32 @luaL_fileresult(ptr noundef nonnull %0, i32 noundef %.010.i, ptr noundef null) #10
  br label %io_file_close.exit

io_file_close.exit:                               ; preds = %66, %63, %47, %51
  %.0 = phi i32 [ %37, %51 ], [ %37, %47 ], [ 0, %63 ], [ 0, %66 ]
  ret i32 %.0
}